target datalayout = "e-m:e-p270:32:32-p271:32:32-p272:64:64-i64:64-i128:128-f80:128-n8:16:32:64-S128"
target triple = "x86_64-pc-linux-gnu"

%"class.cv::tinyxml2::StrPair" = type { i32, ptr, ptr }
%"class.cv::tinyxml2::XMLDocument" = type { %"class.cv::tinyxml2::XMLNode", i8, i8, i32, i32, ptr, ptr, ptr, %"class.cv::tinyxml2::MemPoolT", %"class.cv::tinyxml2::MemPoolT.0", %"class.cv::tinyxml2::MemPoolT.2", %"class.cv::tinyxml2::MemPoolT.4" }
%"class.cv::tinyxml2::XMLNode" = type { ptr, ptr, ptr, %"class.cv::tinyxml2::StrPair", ptr, ptr, ptr, ptr, ptr }
%"class.cv::tinyxml2::MemPoolT" = type { %"class.cv::tinyxml2::MemPool", %"class.cv::tinyxml2::DynArray", ptr, i32, i32, i32, i32 }
%"class.cv::tinyxml2::MemPool" = type { ptr }
%"class.cv::tinyxml2::DynArray" = type { ptr, [10 x ptr], i32, i32 }
%"class.cv::tinyxml2::MemPoolT.0" = type { %"class.cv::tinyxml2::MemPool", %"class.cv::tinyxml2::DynArray.1", ptr, i32, i32, i32, i32 }
%"class.cv::tinyxml2::DynArray.1" = type { ptr, [10 x ptr], i32, i32 }
%"class.cv::tinyxml2::MemPoolT.2" = type { %"class.cv::tinyxml2::MemPool", %"class.cv::tinyxml2::DynArray.3", ptr, i32, i32, i32, i32 }
%"class.cv::tinyxml2::DynArray.3" = type { ptr, [10 x ptr], i32, i32 }
%"class.cv::tinyxml2::MemPoolT.4" = type { %"class.cv::tinyxml2::MemPool", %"class.cv::tinyxml2::DynArray.5", ptr, i32, i32, i32, i32 }
%"class.cv::tinyxml2::DynArray.5" = type { ptr, [10 x ptr], i32, i32 }

@.str.20 = private unnamed_addr constant [3 x i8] c"%s\00", align 1
@.str.21 = private unnamed_addr constant [41 x i8] c"XMLDocument error id=%d str1=%s str2=%s\0A\00", align 1

; Function Attrs: mustprogress uwtable
define hidden void @_ZNK2cv8tinyxml211XMLDocument10PrintErrorEv(ptr noundef nonnull align 8 dereferenceable(640) %0) #3 align 2 {
  %2 = alloca ptr, align 8
  %3 = alloca [20 x i8], align 16
  %4 = alloca [20 x i8], align 16
  store ptr %0, ptr %2, align 8, !tbaa !50
  %5 = load ptr, ptr %2, align 8
  %6 = getelementptr inbounds nuw %"class.cv::tinyxml2::XMLDocument", ptr %5, i32 0, i32 3
  %7 = load i32, ptr %6, align 4, !tbaa !129
  %8 = icmp ne i32 %7, 0
  br i1 %8, label %9, label %33

9:                                                ; preds = %1
  call void @llvm.lifetime.start.p0(i64 20, ptr %3) #17
  call void @llvm.memset.p0.i64(ptr align 16 %3, i8 0, i64 20, i1 false)
  call void @llvm.lifetime.start.p0(i64 20, ptr %4) #17
  call void @llvm.memset.p0.i64(ptr align 16 %4, i8 0, i64 20, i1 false)
  %10 = getelementptr inbounds nuw %"class.cv::tinyxml2::XMLDocument", ptr %5, i32 0, i32 5
  %11 = load ptr, ptr %10, align 8, !tbaa !138
  %12 = icmp ne ptr %11, null
  br i1 %12, label %13, label %18

13:                                               ; preds = %9
  %14 = getelementptr inbounds [20 x i8], ptr %3, i64 0, i64 0
  %15 = getelementptr inbounds nuw %"class.cv::tinyxml2::XMLDocument", ptr %5, i32 0, i32 5
  %16 = load ptr, ptr %15, align 8, !tbaa !138
  %17 = call i32 (ptr, i64, ptr, ...) @snprintf(ptr noundef %14, i64 noundef 20, ptr noundef @.str.20, ptr noundef %16) #17
  br label %18

18:                                               ; preds = %13, %9
  %19 = getelementptr inbounds nuw %"class.cv::tinyxml2::XMLDocument", ptr %5, i32 0, i32 6
  %20 = load ptr, ptr %19, align 8, !tbaa !139
  %21 = icmp ne ptr %20, null
  br i1 %21, label %22, label %27

22:                                               ; preds = %18
  %23 = getelementptr inbounds [20 x i8], ptr %4, i64 0, i64 0
  %24 = getelementptr inbounds nuw %"class.cv::tinyxml2::XMLDocument", ptr %5, i32 0, i32 6
  %25 = load ptr, ptr %24, align 8, !tbaa !139
  %26 = call i32 (ptr, i64, ptr, ...) @snprintf(ptr noundef %23, i64 noundef 20, ptr noundef @.str.20, ptr noundef %25) #17
  br label %27

27:                                               ; preds = %22, %18
  %28 = getelementptr inbounds nuw %"class.cv::tinyxml2::XMLDocument", ptr %5, i32 0, i32 3
  %29 = load i32, ptr %28, align 4, !tbaa !129
  %30 = getelementptr inbounds [20 x i8], ptr %3, i64 0, i64 0
  %31 = getelementptr inbounds [20 x i8], ptr %4, i64 0, i64 0
  %32 = call i32 (ptr, ...) @printf(ptr noundef @.str.21, i32 noundef %29, ptr noundef %30, ptr noundef %31)
  call void @llvm.lifetime.end.p0(i64 20, ptr %4) #17
  call void @llvm.lifetime.end.p0(i64 20, ptr %3) #17
  br label %33

33:                                               ; preds = %27, %1
  ret void
}