; Function Attrs: mustprogress nofree nounwind uwtable
define hidden void @_ZNK2cv8tinyxml211XMLDocument10PrintErrorEv(ptr noundef nonnull readonly align 8 captures(none) dereferenceable(640) %0) local_unnamed_addr #13 align 2 {
  %2 = alloca [20 x i8], align 16
  %3 = alloca [20 x i8], align 16
  %4 = getelementptr inbounds nuw i8, ptr %0, i64 92
  %5 = load i32, ptr %4, align 4, !tbaa !106
  %.not = icmp eq i32 %5, 0
  br i1 %.not, label %19, label %6

6:                                                ; preds = %1
  call void @llvm.lifetime.start.p0(i64 20, ptr nonnull %2) #24
  call void @llvm.memset.p0.i64(ptr noundef nonnull align 16 dereferenceable(20) %2, i8 0, i64 20, i1 false)
  call void @llvm.lifetime.start.p0(i64 20, ptr nonnull %3) #24
  call void @llvm.memset.p0.i64(ptr noundef nonnull align 16 dereferenceable(20) %3, i8 0, i64 20, i1 false)
  %7 = getelementptr inbounds nuw i8, ptr %0, i64 104
  %8 = load ptr, ptr %7, align 8, !tbaa !116
  %.not2 = icmp eq ptr %8, null
  br i1 %.not2, label %11, label %9

9:                                                ; preds = %6
  %10 = call i32 (ptr, i64, ptr, ...) @snprintf(ptr noundef nonnull dereferenceable(1) %2, i64 noundef 20, ptr noundef nonnull @.str.20, ptr noundef nonnull %8) #24
  br label %11

11:                                               ; preds = %9, %6
  %12 = getelementptr inbounds nuw i8, ptr %0, i64 112
  %13 = load ptr, ptr %12, align 8, !tbaa !117
  %.not3 = icmp eq ptr %13, null
  br i1 %.not3, label %16, label %14

14:                                               ; preds = %11
  %15 = call i32 (ptr, i64, ptr, ...) @snprintf(ptr noundef nonnull dereferenceable(1) %3, i64 noundef 20, ptr noundef nonnull @.str.20, ptr noundef nonnull %13) #24
  br label %16

16:                                               ; preds = %14, %11
  %17 = load i32, ptr %4, align 4, !tbaa !106
  %18 = call i32 (ptr, ...) @printf(ptr noundef nonnull dereferenceable(1) @.str.21, i32 noundef %17, ptr noundef nonnull %2, ptr noundef nonnull %3)
  call void @llvm.lifetime.end.p0(i64 20, ptr nonnull %3) #24
  call void @llvm.lifetime.end.p0(i64 20, ptr nonnull %2) #24
  br label %19

19:                                               ; preds = %16, %1
  ret void
}